target datalayout = "e-m:e-p270:32:32-p271:32:32-p272:64:64-i64:64-i128:128-f80:128-n8:16:32:64-S128"
target triple = "x86_64-pc-linux-gnu"

%struct.FilterParams = type { i32, double, ptr, ptr, ptr }

; Function Attrs: nounwind uwtable
define internal void @blend_phoenix_32bit(ptr noundef %0, i64 noundef %1, ptr noundef %2, i64 noundef %3, ptr noundef %4, i64 noundef %5, i64 noundef %6, i64 noundef %7, ptr noundef %8, ptr noundef %9) #0 {
  %11 = alloca ptr, align 8
  %12 = alloca i64, align 8
  %13 = alloca ptr, align 8
  %14 = alloca i64, align 8
  %15 = alloca ptr, align 8
  %16 = alloca i64, align 8
  %17 = alloca i64, align 8
  %18 = alloca i64, align 8
  %19 = alloca ptr, align 8
  %20 = alloca ptr, align 8
  %21 = alloca ptr, align 8
  %22 = alloca ptr, align 8
  %23 = alloca ptr, align 8
  %24 = alloca float, align 4
  %25 = alloca i32, align 4
  %26 = alloca i32, align 4
  %27 = alloca i32, align 4
  store ptr %0, ptr %11, align 8, !tbaa !46
  store i64 %1, ptr %12, align 8, !tbaa !88
  store ptr %2, ptr %13, align 8, !tbaa !46
  store i64 %3, ptr %14, align 8, !tbaa !88
  store ptr %4, ptr %15, align 8, !tbaa !46
  store i64 %5, ptr %16, align 8, !tbaa !88
  store i64 %6, ptr %17, align 8, !tbaa !88
  store i64 %7, ptr %18, align 8, !tbaa !88
  store ptr %8, ptr %19, align 8, !tbaa !77
  store ptr %9, ptr %20, align 8, !tbaa !89
  call void @llvm.lifetime.start.p0(i64 8, ptr %21) #12
  %28 = load ptr, ptr %11, align 8, !tbaa !46
  store ptr %28, ptr %21, align 8, !tbaa !91
  call void @llvm.lifetime.start.p0(i64 8, ptr %22) #12
  %29 = load ptr, ptr %13, align 8, !tbaa !46
  store ptr %29, ptr %22, align 8, !tbaa !91
  call void @llvm.lifetime.start.p0(i64 8, ptr %23) #12
  %30 = load ptr, ptr %15, align 8, !tbaa !46
  store ptr %30, ptr %23, align 8, !tbaa !91
  call void @llvm.lifetime.start.p0(i64 4, ptr %24) #12
  %31 = load ptr, ptr %19, align 8, !tbaa !77
  %32 = getelementptr inbounds nuw %struct.FilterParams, ptr %31, i32 0, i32 1
  %33 = load double, ptr %32, align 8, !tbaa !82
  %34 = fptrunc nsz double %33 to float
  store float %34, ptr %24, align 4, !tbaa !99
  %35 = load i64, ptr %16, align 8, !tbaa !88
  %36 = udiv i64 %35, 4
  store i64 %36, ptr %16, align 8, !tbaa !88
  %37 = load i64, ptr %12, align 8, !tbaa !88
  %38 = udiv i64 %37, 4
  store i64 %38, ptr %12, align 8, !tbaa !88
  %39 = load i64, ptr %14, align 8, !tbaa !88
  %40 = udiv i64 %39, 4
  store i64 %40, ptr %14, align 8, !tbaa !88
  call void @llvm.lifetime.start.p0(i64 4, ptr %25) #12
  store i32 0, ptr %25, align 4, !tbaa !37
  br label %41

41:                                               ; preds = %137, %10
  %42 = load i32, ptr %25, align 4, !tbaa !37
  %43 = sext i32 %42 to i64
  %44 = load i64, ptr %18, align 8, !tbaa !88
  %45 = icmp slt i64 %43, %44
  br i1 %45, label %47, label %46

46:                                               ; preds = %41
  store i32 2, ptr %26, align 4
  call void @llvm.lifetime.end.p0(i64 4, ptr %25) #12
  br label %140

47:                                               ; preds = %41
  call void @llvm.lifetime.start.p0(i64 4, ptr %27) #12
  store i32 0, ptr %27, align 4, !tbaa !37
  br label %48

48:                                               ; preds = %124, %47
  %49 = load i32, ptr %27, align 4, !tbaa !37
  %50 = sext i32 %49 to i64
  %51 = load i64, ptr %17, align 8, !tbaa !88
  %52 = icmp slt i64 %50, %51
  br i1 %52, label %54, label %53

53:                                               ; preds = %48
  store i32 5, ptr %26, align 4
  call void @llvm.lifetime.end.p0(i64 4, ptr %27) #12
  br label %127

54:                                               ; preds = %48
  %55 = load ptr, ptr %21, align 8, !tbaa !91
  %56 = load i32, ptr %27, align 4, !tbaa !37
  %57 = sext i32 %56 to i64
  %58 = getelementptr inbounds float, ptr %55, i64 %57
  %59 = load float, ptr %58, align 4, !tbaa !99
  %60 = load ptr, ptr %21, align 8, !tbaa !91
  %61 = load i32, ptr %27, align 4, !tbaa !37
  %62 = sext i32 %61 to i64
  %63 = getelementptr inbounds float, ptr %60, i64 %62
  %64 = load float, ptr %63, align 4, !tbaa !99
  %65 = load ptr, ptr %22, align 8, !tbaa !91
  %66 = load i32, ptr %27, align 4, !tbaa !37
  %67 = sext i32 %66 to i64
  %68 = getelementptr inbounds float, ptr %65, i64 %67
  %69 = load float, ptr %68, align 4, !tbaa !99
  %70 = fcmp nsz ogt float %64, %69
  br i1 %70, label %71, label %77

71:                                               ; preds = %54
  %72 = load ptr, ptr %22, align 8, !tbaa !91
  %73 = load i32, ptr %27, align 4, !tbaa !37
  %74 = sext i32 %73 to i64
  %75 = getelementptr inbounds float, ptr %72, i64 %74
  %76 = load float, ptr %75, align 4, !tbaa !99
  br label %83

77:                                               ; preds = %54
  %78 = load ptr, ptr %21, align 8, !tbaa !91
  %79 = load i32, ptr %27, align 4, !tbaa !37
  %80 = sext i32 %79 to i64
  %81 = getelementptr inbounds float, ptr %78, i64 %80
  %82 = load float, ptr %81, align 4, !tbaa !99
  br label %83

83:                                               ; preds = %77, %71
  %84 = phi nsz float [ %76, %71 ], [ %82, %77 ]
  %85 = load ptr, ptr %21, align 8, !tbaa !91
  %86 = load i32, ptr %27, align 4, !tbaa !37
  %87 = sext i32 %86 to i64
  %88 = getelementptr inbounds float, ptr %85, i64 %87
  %89 = load float, ptr %88, align 4, !tbaa !99
  %90 = load ptr, ptr %22, align 8, !tbaa !91
  %91 = load i32, ptr %27, align 4, !tbaa !37
  %92 = sext i32 %91 to i64
  %93 = getelementptr inbounds float, ptr %90, i64 %92
  %94 = load float, ptr %93, align 4, !tbaa !99
  %95 = fcmp nsz ogt float %89, %94
  br i1 %95, label %96, label %102

96:                                               ; preds = %83
  %97 = load ptr, ptr %21, align 8, !tbaa !91
  %98 = load i32, ptr %27, align 4, !tbaa !37
  %99 = sext i32 %98 to i64
  %100 = getelementptr inbounds float, ptr %97, i64 %99
  %101 = load float, ptr %100, align 4, !tbaa !99
  br label %108

102:                                              ; preds = %83
  %103 = load ptr, ptr %22, align 8, !tbaa !91
  %104 = load i32, ptr %27, align 4, !tbaa !37
  %105 = sext i32 %104 to i64
  %106 = getelementptr inbounds float, ptr %103, i64 %105
  %107 = load float, ptr %106, align 4, !tbaa !99
  br label %108

108:                                              ; preds = %102, %96
  %109 = phi nsz float [ %101, %96 ], [ %107, %102 ]
  %110 = fsub nsz float %84, %109
  %111 = fadd nsz float %110, 1.000000e+00
  %112 = load ptr, ptr %21, align 8, !tbaa !91
  %113 = load i32, ptr %27, align 4, !tbaa !37
  %114 = sext i32 %113 to i64
  %115 = getelementptr inbounds float, ptr %112, i64 %114
  %116 = load float, ptr %115, align 4, !tbaa !99
  %117 = fsub nsz float %111, %116
  %118 = load float, ptr %24, align 4, !tbaa !99
  %119 = call nsz float @llvm.fmuladd.f32(float %117, float %118, float %59)
  %120 = load ptr, ptr %23, align 8, !tbaa !91
  %121 = load i32, ptr %27, align 4, !tbaa !37
  %122 = sext i32 %121 to i64
  %123 = getelementptr inbounds float, ptr %120, i64 %122
  store float %119, ptr %123, align 4, !tbaa !99
  br label %124

124:                                              ; preds = %108
  %125 = load i32, ptr %27, align 4, !tbaa !37
  %126 = add nsw i32 %125, 1
  store i32 %126, ptr %27, align 4, !tbaa !37
  br label %48, !llvm.loop !634

127:                                              ; preds = %53
  %128 = load i64, ptr %16, align 8, !tbaa !88
  %129 = load ptr, ptr %23, align 8, !tbaa !91
  %130 = getelementptr inbounds float, ptr %129, i64 %128
  store ptr %130, ptr %23, align 8, !tbaa !91
  %131 = load i64, ptr %12, align 8, !tbaa !88
  %132 = load ptr, ptr %21, align 8, !tbaa !91
  %133 = getelementptr inbounds float, ptr %132, i64 %131
  store ptr %133, ptr %21, align 8, !tbaa !91
  %134 = load i64, ptr %14, align 8, !tbaa !88
  %135 = load ptr, ptr %22, align 8, !tbaa !91
  %136 = getelementptr inbounds float, ptr %135, i64 %134
  store ptr %136, ptr %22, align 8, !tbaa !91
  br label %137

137:                                              ; preds = %127
  %138 = load i32, ptr %25, align 4, !tbaa !37
  %139 = add nsw i32 %138, 1
  store i32 %139, ptr %25, align 4, !tbaa !37
  br label %41, !llvm.loop !635

140:                                              ; preds = %46
  call void @llvm.lifetime.end.p0(i64 4, ptr %24) #12
  call void @llvm.lifetime.end.p0(i64 8, ptr %23) #12
  call void @llvm.lifetime.end.p0(i64 8, ptr %22) #12
  call void @llvm.lifetime.end.p0(i64 8, ptr %21) #12
  ret void
}